target datalayout = "e-m:e-p270:32:32-p271:32:32-p272:64:64-i64:64-i128:128-f80:128-n8:16:32:64-S128"
target triple = "x86_64-pc-linux-gnu"

; Function Attrs: inlinehint nounwind uwtable
define internal zeroext i8 @VP8GetAlphaValue(i32 noundef %0) #2 {
  %2 = alloca i32, align 4
  store i32 %0, ptr %2, align 4, !tbaa !8
  %3 = load i32, ptr %2, align 4, !tbaa !8
  %4 = lshr i32 %3, 8
  %5 = and i32 %4, 255
  %6 = trunc i32 %5 to i8
  ret i8 %6
}

; Function Attrs: inlinehint nounwind uwtable
define internal zeroext i8 @VP8GetAlphaIndex(i8 noundef zeroext %0) #2 {
  %2 = alloca i8, align 1
  store i8 %0, ptr %2, align 1, !tbaa !13
  %3 = load i8, ptr %2, align 1, !tbaa !13
  ret i8 %3
}

; Function Attrs: nounwind uwtable
define internal void @MapAlpha_C(ptr noundef %0, ptr noundef %1, ptr noundef %2, i32 noundef %3, i32 noundef %4, i32 noundef %5) #0 {
  %7 = alloca ptr, align 8
  %8 = alloca ptr, align 8
  %9 = alloca ptr, align 8
  %10 = alloca i32, align 4
  %11 = alloca i32, align 4
  %12 = alloca i32, align 4
  %13 = alloca i32, align 4
  %14 = alloca i32, align 4
  store ptr %0, ptr %7, align 8, !tbaa !21
  store ptr %1, ptr %8, align 8, !tbaa !3
  store ptr %2, ptr %9, align 8, !tbaa !21
  store i32 %3, ptr %10, align 4, !tbaa !8
  store i32 %4, ptr %11, align 4, !tbaa !8
  store i32 %5, ptr %12, align 4, !tbaa !8
  call void @llvm.lifetime.start.p0(i64 4, ptr %13) #8
  %15 = load i32, ptr %10, align 4, !tbaa !8
  store i32 %15, ptr %13, align 4, !tbaa !8
  br label %16

16:                                               ; preds = %41, %6
  %17 = load i32, ptr %13, align 4, !tbaa !8
  %18 = load i32, ptr %11, align 4, !tbaa !8
  %19 = icmp slt i32 %17, %18
  br i1 %19, label %20, label %44

20:                                               ; preds = %16
  call void @llvm.lifetime.start.p0(i64 4, ptr %14) #8
  store i32 0, ptr %14, align 4, !tbaa !8
  br label %21

21:                                               ; preds = %37, %20
  %22 = load i32, ptr %14, align 4, !tbaa !8
  %23 = load i32, ptr %12, align 4, !tbaa !8
  %24 = icmp slt i32 %22, %23
  br i1 %24, label %25, label %40

25:                                               ; preds = %21
  %26 = load ptr, ptr %8, align 8, !tbaa !3
  %27 = load ptr, ptr %7, align 8, !tbaa !21
  %28 = getelementptr inbounds nuw i8, ptr %27, i32 1
  store ptr %28, ptr %7, align 8, !tbaa !21
  %29 = load i8, ptr %27, align 1, !tbaa !13
  %30 = call zeroext i8 @VP8GetAlphaIndex(i8 noundef zeroext %29)
  %31 = zext i8 %30 to i64
  %32 = getelementptr inbounds nuw i32, ptr %26, i64 %31
  %33 = load i32, ptr %32, align 4, !tbaa !8
  %34 = call zeroext i8 @VP8GetAlphaValue(i32 noundef %33)
  %35 = load ptr, ptr %9, align 8, !tbaa !21
  %36 = getelementptr inbounds nuw i8, ptr %35, i32 1
  store ptr %36, ptr %9, align 8, !tbaa !21
  store i8 %34, ptr %35, align 1, !tbaa !13
  br label %37

37:                                               ; preds = %25
  %38 = load i32, ptr %14, align 4, !tbaa !8
  %39 = add nsw i32 %38, 1
  store i32 %39, ptr %14, align 4, !tbaa !8
  br label %21, !llvm.loop !59

40:                                               ; preds = %21
  call void @llvm.lifetime.end.p0(i64 4, ptr %14) #8
  br label %41

41:                                               ; preds = %40
  %42 = load i32, ptr %13, align 4, !tbaa !8
  %43 = add nsw i32 %42, 1
  store i32 %43, ptr %13, align 4, !tbaa !8
  br label %16, !llvm.loop !60

44:                                               ; preds = %16
  call void @llvm.lifetime.end.p0(i64 4, ptr %13) #8
  ret void
}