; Function Attrs: nofree norecurse nosync nounwind memory(argmem: readwrite) uwtable
define internal void @MapAlpha_C(ptr noundef readonly captures(none) %0, ptr noundef readonly captures(none) %1, ptr noundef writeonly captures(none) %2, i32 noundef %3, i32 noundef %4, i32 noundef %5) #2 {
  %7 = icmp slt i32 %3, %4
  %8 = icmp sgt i32 %5, 0
  %or.cond = and i1 %7, %8
  br i1 %or.cond, label %.preheader.us, label %._crit_edge20

.preheader.us:                                    ; preds = %6, %._crit_edge.us
  %.0919.us = phi i32 [ %19, %._crit_edge.us ], [ %3, %6 ]
  %.01018.us = phi ptr [ %10, %._crit_edge.us ], [ %0, %6 ]
  %.01117.us = phi ptr [ %17, %._crit_edge.us ], [ %2, %6 ]
  br label %9

9:                                                ; preds = %.preheader.us, %9
  %.015.us = phi i32 [ 0, %.preheader.us ], [ %18, %9 ]
  %.114.us = phi ptr [ %.01018.us, %.preheader.us ], [ %10, %9 ]
  %.11213.us = phi ptr [ %.01117.us, %.preheader.us ], [ %17, %9 ]
  %10 = getelementptr inbounds nuw i8, ptr %.114.us, i64 1
  %11 = load i8, ptr %.114.us, align 1, !tbaa !20
  %12 = zext i8 %11 to i64
  %13 = getelementptr inbounds nuw i32, ptr %1, i64 %12
  %14 = load i32, ptr %13, align 4, !tbaa !3
  %15 = lshr i32 %14, 8
  %16 = trunc i32 %15 to i8
  %17 = getelementptr inbounds nuw i8, ptr %.11213.us, i64 1
  store i8 %16, ptr %.11213.us, align 1, !tbaa !20
  %18 = add nuw nsw i32 %.015.us, 1
  %exitcond.not = icmp eq i32 %18, %5
  br i1 %exitcond.not, label %._crit_edge.us, label %9, !llvm.loop !81

._crit_edge.us:                                   ; preds = %9
  %19 = add nsw i32 %.0919.us, 1
  %exitcond23.not = icmp eq i32 %19, %4
  br i1 %exitcond23.not, label %._crit_edge20, label %.preheader.us, !llvm.loop !82

._crit_edge20:                                    ; preds = %._crit_edge.us, %6
  ret void
}